; ModuleID = '20/189.c'
source_filename = "20/189.c"
target datalayout = "e-m:e-p270:32:32-p271:32:32-p272:64:64-i64:64-f80:128-n8:16:32:64-S128"
target triple = "x86_64-pc-linux-gnu"

; Function Attrs: noinline nounwind uwtable
define dso_local void @main() #0 {
  %1 = alloca i32, align 4
  %2 = alloca i32, align 4
  %3 = alloca i32, align 4
  %4 = alloca i32, align 4
  %5 = alloca i32, align 4
  %6 = alloca i32, align 4
  %7 = alloca [100 x [20 x i8]], align 16
  %8 = alloca i8, align 1
  %9 = alloca [100 x [20 x i8]], align 16
  %10 = alloca [10 x i8], align 1
  %11 = alloca [20 x i8], align 16
  %12 = alloca [3 x i8], align 1
  %13 = alloca i8, align 1
  store i32 0, i32* %1, align 4
  %14 = bitcast [100 x [20 x i8]]* %7 to i8*
  call void @llvm.memset.p0i8.i64(i8* align 16 %14, i8 0, i64 2000, i1 false)
  %15 = bitcast [100 x [20 x i8]]* %9 to i8*
  call void @llvm.memset.p0i8.i64(i8* align 16 %15, i8 0, i64 2000, i1 false)
  br label %16

16:                                               ; preds = %0, %147
  %17 = bitcast [10 x i8]* %10 to i8*
  call void @llvm.memset.p0i8.i64(i8* align 1 %17, i8 0, i64 10, i1 false)
  %18 = bitcast [20 x i8]* %11 to i8*
  call void @llvm.memset.p0i8.i64(i8* align 16 %18, i8 0, i64 20, i1 false)
  %19 = bitcast [3 x i8]* %12 to i8*
  call void @llvm.memset.p0i8.i64(i8* align 1 %19, i8 0, i64 3, i1 false)
  %20 = load i32, i32* %1, align 4
  %21 = sext i32 %20 to i64
  %22 = getelementptr inbounds [100 x [20 x i8]], [100 x [20 x i8]]* %7, i64 0, i64 %21
  %23 = getelementptr inbounds [20 x i8], [20 x i8]* %22, i64 0, i64 0
  %24 = call i32 (i8*, ...) bitcast (i32 (...)* @gets to i32 (i8*, ...)*)(i8* %23)
  %25 = load i32, i32* %1, align 4
  %26 = sext i32 %25 to i64
  %27 = getelementptr inbounds [100 x [20 x i8]], [100 x [20 x i8]]* %7, i64 0, i64 %26
  %28 = getelementptr inbounds [20 x i8], [20 x i8]* %27, i64 0, i64 0
  %29 = load i8, i8* %28, align 4
  %30 = sext i8 %29 to i32
  %31 = icmp eq i32 %30, 0
  br i1 %31, label %32, label %33

32:                                               ; preds = %16
  br label %162

33:                                               ; preds = %16
  %34 = load i32, i32* %1, align 4
  %35 = sext i32 %34 to i64
  %36 = getelementptr inbounds [100 x [20 x i8]], [100 x [20 x i8]]* %7, i64 0, i64 %35
  %37 = getelementptr inbounds [20 x i8], [20 x i8]* %36, i64 0, i64 0
  %38 = call i64 @strlen(i8* %37) #5
  %39 = trunc i64 %38 to i32
  store i32 %39, i32* %2, align 4
  %40 = load i32, i32* %2, align 4
  %41 = sub nsw i32 %40, 4
  store i32 %41, i32* %6, align 4
  %42 = load i32, i32* %1, align 4
  %43 = sext i32 %42 to i64
  %44 = getelementptr inbounds [100 x [20 x i8]], [100 x [20 x i8]]* %7, i64 0, i64 %43
  %45 = getelementptr inbounds [20 x i8], [20 x i8]* %44, i64 0, i64 0
  %46 = load i8, i8* %45, align 4
  store i8 %46, i8* %8, align 1
  store i32 1, i32* %3, align 4
  br label %47

47:                                               ; preds = %75, %33
  %48 = load i32, i32* %3, align 4
  %49 = load i32, i32* %2, align 4
  %50 = sub nsw i32 %49, 5
  %51 = icmp sle i32 %48, %50
  br i1 %51, label %52, label %78

52:                                               ; preds = %47
  %53 = load i32, i32* %1, align 4
  %54 = sext i32 %53 to i64
  %55 = getelementptr inbounds [100 x [20 x i8]], [100 x [20 x i8]]* %7, i64 0, i64 %54
  %56 = load i32, i32* %3, align 4
  %57 = sext i32 %56 to i64
  %58 = getelementptr inbounds [20 x i8], [20 x i8]* %55, i64 0, i64 %57
  %59 = load i8, i8* %58, align 1
  %60 = sext i8 %59 to i32
  %61 = load i8, i8* %8, align 1
  %62 = sext i8 %61 to i32
  %63 = icmp sgt i32 %60, %62
  br i1 %63, label %64, label %74

64:                                               ; preds = %52
  %65 = load i32, i32* %1, align 4
  %66 = sext i32 %65 to i64
  %67 = getelementptr inbounds [100 x [20 x i8]], [100 x [20 x i8]]* %7, i64 0, i64 %66
  %68 = load i32, i32* %3, align 4
  %69 = sext i32 %68 to i64
  %70 = getelementptr inbounds [20 x i8], [20 x i8]* %67, i64 0, i64 %69
  %71 = load i8, i8* %70, align 1
  store i8 %71, i8* %8, align 1
  %72 = load i32, i32* %3, align 4
  %73 = trunc i32 %72 to i8
  store i8 %73, i8* %13, align 1
  br label %74

74:                                               ; preds = %64, %52
  br label %75

75:                                               ; preds = %74
  %76 = load i32, i32* %3, align 4
  %77 = add nsw i32 %76, 1
  store i32 %77, i32* %3, align 4
  br label %47

78:                                               ; preds = %47
  %79 = load i8, i8* %13, align 1
  %80 = sext i8 %79 to i32
  %81 = add nsw i32 %80, 1
  store i32 %81, i32* %4, align 4
  store i32 0, i32* %5, align 4
  br label %82

82:                                               ; preds = %98, %78
  %83 = load i32, i32* %4, align 4
  %84 = load i32, i32* %6, align 4
  %85 = sub nsw i32 %84, 1
  %86 = icmp sle i32 %83, %85
  br i1 %86, label %87, label %103

87:                                               ; preds = %82
  %88 = load i32, i32* %1, align 4
  %89 = sext i32 %88 to i64
  %90 = getelementptr inbounds [100 x [20 x i8]], [100 x [20 x i8]]* %7, i64 0, i64 %89
  %91 = load i32, i32* %4, align 4
  %92 = sext i32 %91 to i64
  %93 = getelementptr inbounds [20 x i8], [20 x i8]* %90, i64 0, i64 %92
  %94 = load i8, i8* %93, align 1
  %95 = load i32, i32* %5, align 4
  %96 = sext i32 %95 to i64
  %97 = getelementptr inbounds [10 x i8], [10 x i8]* %10, i64 0, i64 %96
  store i8 %94, i8* %97, align 1
  br label %98

98:                                               ; preds = %87
  %99 = load i32, i32* %4, align 4
  %100 = add nsw i32 %99, 1
  store i32 %100, i32* %4, align 4
  %101 = load i32, i32* %5, align 4
  %102 = add nsw i32 %101, 1
  store i32 %102, i32* %5, align 4
  br label %82

103:                                              ; preds = %82
  store i32 0, i32* %3, align 4
  br label %104

104:                                              ; preds = %120, %103
  %105 = load i32, i32* %3, align 4
  %106 = load i8, i8* %13, align 1
  %107 = sext i8 %106 to i32
  %108 = icmp sle i32 %105, %107
  br i1 %108, label %109, label %123

109:                                              ; preds = %104
  %110 = load i32, i32* %1, align 4
  %111 = sext i32 %110 to i64
  %112 = getelementptr inbounds [100 x [20 x i8]], [100 x [20 x i8]]* %7, i64 0, i64 %111
  %113 = load i32, i32* %3, align 4
  %114 = sext i32 %113 to i64
  %115 = getelementptr inbounds [20 x i8], [20 x i8]* %112, i64 0, i64 %114
  %116 = load i8, i8* %115, align 1
  %117 = load i32, i32* %3, align 4
  %118 = sext i32 %117 to i64
  %119 = getelementptr inbounds [20 x i8], [20 x i8]* %11, i64 0, i64 %118
  store i8 %116, i8* %119, align 1
  br label %120

120:                                              ; preds = %109
  %121 = load i32, i32* %3, align 4
  %122 = add nsw i32 %121, 1
  store i32 %122, i32* %3, align 4
  br label %104

123:                                              ; preds = %104
  store i32 0, i32* %3, align 4
  %124 = load i32, i32* %6, align 4
  %125 = add nsw i32 %124, 1
  store i32 %125, i32* %4, align 4
  br label %126

126:                                              ; preds = %142, %123
  %127 = load i32, i32* %4, align 4
  %128 = load i32, i32* %2, align 4
  %129 = sub nsw i32 %128, 1
  %130 = icmp sle i32 %127, %129
  br i1 %130, label %131, label %147

131:                                              ; preds = %126
  %132 = load i32, i32* %1, align 4
  %133 = sext i32 %132 to i64
  %134 = getelementptr inbounds [100 x [20 x i8]], [100 x [20 x i8]]* %7, i64 0, i64 %133
  %135 = load i32, i32* %4, align 4
  %136 = sext i32 %135 to i64
  %137 = getelementptr inbounds [20 x i8], [20 x i8]* %134, i64 0, i64 %136
  %138 = load i8, i8* %137, align 1
  %139 = load i32, i32* %3, align 4
  %140 = sext i32 %139 to i64
  %141 = getelementptr inbounds [3 x i8], [3 x i8]* %12, i64 0, i64 %140
  store i8 %138, i8* %141, align 1
  br label %142

142:                                              ; preds = %131
  %143 = load i32, i32* %3, align 4
  %144 = add nsw i32 %143, 1
  store i32 %144, i32* %3, align 4
  %145 = load i32, i32* %4, align 4
  %146 = add nsw i32 %145, 1
  store i32 %146, i32* %4, align 4
  br label %126

147:                                              ; preds = %126
  %148 = getelementptr inbounds [20 x i8], [20 x i8]* %11, i64 0, i64 0
  %149 = getelementptr inbounds [3 x i8], [3 x i8]* %12, i64 0, i64 0
  %150 = call i8* @strcat(i8* %148, i8* %149) #6
  %151 = getelementptr inbounds [20 x i8], [20 x i8]* %11, i64 0, i64 0
  %152 = getelementptr inbounds [10 x i8], [10 x i8]* %10, i64 0, i64 0
  %153 = call i8* @strcat(i8* %151, i8* %152) #6
  %154 = load i32, i32* %1, align 4
  %155 = sext i32 %154 to i64
  %156 = getelementptr inbounds [100 x [20 x i8]], [100 x [20 x i8]]* %9, i64 0, i64 %155
  %157 = getelementptr inbounds [20 x i8], [20 x i8]* %156, i64 0, i64 0
  %158 = getelementptr inbounds [20 x i8], [20 x i8]* %11, i64 0, i64 0
  %159 = call i8* @strcpy(i8* %157, i8* %158) #6
  %160 = load i32, i32* %1, align 4
  %161 = add nsw i32 %160, 1
  store i32 %161, i32* %1, align 4
  br label %16

162:                                              ; preds = %32
  store i32 0, i32* %3, align 4
  br label %163

163:                                              ; preds = %174, %162
  %164 = load i32, i32* %3, align 4
  %165 = load i32, i32* %1, align 4
  %166 = sub nsw i32 %165, 1
  %167 = icmp sle i32 %164, %166
  br i1 %167, label %168, label %177

168:                                              ; preds = %163
  %169 = load i32, i32* %3, align 4
  %170 = sext i32 %169 to i64
  %171 = getelementptr inbounds [100 x [20 x i8]], [100 x [20 x i8]]* %9, i64 0, i64 %170
  %172 = getelementptr inbounds [20 x i8], [20 x i8]* %171, i64 0, i64 0
  %173 = call i32 @puts(i8* %172)
  br label %174

174:                                              ; preds = %168
  %175 = load i32, i32* %3, align 4
  %176 = add nsw i32 %175, 1
  store i32 %176, i32* %3, align 4
  br label %163

177:                                              ; preds = %163
  ret void
}

; Function Attrs: argmemonly nounwind willreturn
declare void @llvm.memset.p0i8.i64(i8* nocapture writeonly, i8, i64, i1 immarg) #1

declare dso_local i32 @gets(...) #2

; Function Attrs: nounwind readonly
declare dso_local i64 @strlen(i8*) #3

; Function Attrs: nounwind
declare dso_local i8* @strcat(i8*, i8*) #4

; Function Attrs: nounwind
declare dso_local i8* @strcpy(i8*, i8*) #4

declare dso_local i32 @puts(i8*) #2


!llvm.module.flags = !{!0}
!llvm.ident = !{!1}

!0 = !{i32 1, !"wchar_size", i32 4}
!1 = !{!"clang version 10.0.0-4ubuntu1 "}
